target datalayout = "e-m:e-p270:32:32-p271:32:32-p272:64:64-i64:64-i128:128-f80:128-n8:16:32:64-S128"
target triple = "x86_64-pc-linux-gnu"

%struct.reftable_flock = type { ptr, i32, ptr }
%struct.lock_file = type { ptr }

; Function Attrs: inlinehint nounwind uwtable
define internal i32 @close_lock_file_gently(ptr noundef %0) #2 {
  %2 = alloca ptr, align 8
  store ptr %0, ptr %2, align 8, !tbaa !32
  %3 = load ptr, ptr %2, align 8, !tbaa !32
  %4 = getelementptr inbounds nuw %struct.lock_file, ptr %3, i32 0, i32 0
  %5 = load ptr, ptr %4, align 8, !tbaa !38
  %6 = call i32 @close_tempfile_gently(ptr noundef %5)
  ret i32 %6
}

; Function Attrs: nounwind uwtable
define dso_local i32 @flock_close(ptr noundef %0) #0 {
  %2 = alloca i32, align 4
  %3 = alloca ptr, align 8
  %4 = alloca ptr, align 8
  %5 = alloca i32, align 4
  %6 = alloca i32, align 4
  store ptr %0, ptr %3, align 8, !tbaa !29
  call void @llvm.lifetime.start.p0(i64 8, ptr %4) #7
  %7 = load ptr, ptr %3, align 8, !tbaa !29
  %8 = getelementptr inbounds nuw %struct.reftable_flock, ptr %7, i32 0, i32 2
  %9 = load ptr, ptr %8, align 8, !tbaa !37
  store ptr %9, ptr %4, align 8, !tbaa !32
  call void @llvm.lifetime.start.p0(i64 4, ptr %5) #7
  %10 = load ptr, ptr %4, align 8, !tbaa !32
  %11 = icmp ne ptr %10, null
  br i1 %11, label %13, label %12

12:                                               ; preds = %1
  store i32 -6, ptr %2, align 4
  store i32 1, ptr %6, align 4
  br label %22

13:                                               ; preds = %1
  %14 = load ptr, ptr %4, align 8, !tbaa !32
  %15 = call i32 @close_lock_file_gently(ptr noundef %14)
  store i32 %15, ptr %5, align 4, !tbaa !26
  %16 = load ptr, ptr %3, align 8, !tbaa !29
  %17 = getelementptr inbounds nuw %struct.reftable_flock, ptr %16, i32 0, i32 1
  store i32 -1, ptr %17, align 8, !tbaa !34
  %18 = load i32, ptr %5, align 4, !tbaa !26
  %19 = icmp slt i32 %18, 0
  br i1 %19, label %20, label %21

20:                                               ; preds = %13
  store i32 -2, ptr %2, align 4
  store i32 1, ptr %6, align 4
  br label %22

21:                                               ; preds = %13
  store i32 0, ptr %2, align 4
  store i32 1, ptr %6, align 4
  br label %22

22:                                               ; preds = %21, %20, %12
  call void @llvm.lifetime.end.p0(i64 4, ptr %5) #7
  call void @llvm.lifetime.end.p0(i64 8, ptr %4) #7
  %23 = load i32, ptr %2, align 4
  ret i32 %23
}