; Function Attrs: nounwind uwtable
define dso_local range(i32 -6, 1) i32 @flock_close(ptr noundef captures(none) %0) local_unnamed_addr #0 {
  %2 = getelementptr inbounds nuw i8, ptr %0, i64 16
  %3 = load ptr, ptr %2, align 8, !tbaa !30
  %.not = icmp eq ptr %3, null
  br i1 %.not, label %8, label %4

4:                                                ; preds = %1
  %.val = load ptr, ptr %3, align 8, !tbaa !25
  %5 = tail call i32 @close_tempfile_gently(ptr noundef %.val) #5
  %6 = getelementptr inbounds nuw i8, ptr %0, i64 8
  store i32 -1, ptr %6, align 8, !tbaa !27
  %7 = icmp slt i32 %5, 0
  %. = select i1 %7, i32 -2, i32 0
  br label %8

8:                                                ; preds = %4, %1
  %.0 = phi i32 [ -6, %1 ], [ %., %4 ]
  ret i32 %.0
}